
/home/chenyoo/riscv_benchmark/ibex_project/build/popcount_o2_check/popcount_o2_check.elf:     file format elf32-littleriscv


Disassembly of section .vectors:

00100000 <_vectors_start>:
  100000:	3a80006f          	j	1003a8 <default_exc_handler>
  100004:	3a40006f          	j	1003a8 <default_exc_handler>
  100008:	3a00006f          	j	1003a8 <default_exc_handler>
  10000c:	39c0006f          	j	1003a8 <default_exc_handler>
  100010:	3980006f          	j	1003a8 <default_exc_handler>
  100014:	3940006f          	j	1003a8 <default_exc_handler>
  100018:	3900006f          	j	1003a8 <default_exc_handler>
  10001c:	3900006f          	j	1003ac <timer_handler>
  100020:	3880006f          	j	1003a8 <default_exc_handler>
  100024:	3840006f          	j	1003a8 <default_exc_handler>
  100028:	3800006f          	j	1003a8 <default_exc_handler>
  10002c:	37c0006f          	j	1003a8 <default_exc_handler>
  100030:	3780006f          	j	1003a8 <default_exc_handler>
  100034:	3740006f          	j	1003a8 <default_exc_handler>
  100038:	3700006f          	j	1003a8 <default_exc_handler>
  10003c:	36c0006f          	j	1003a8 <default_exc_handler>
  100040:	3680006f          	j	1003a8 <default_exc_handler>
  100044:	3640006f          	j	1003a8 <default_exc_handler>
  100048:	3600006f          	j	1003a8 <default_exc_handler>
  10004c:	35c0006f          	j	1003a8 <default_exc_handler>
  100050:	3580006f          	j	1003a8 <default_exc_handler>
  100054:	3540006f          	j	1003a8 <default_exc_handler>
  100058:	3500006f          	j	1003a8 <default_exc_handler>
  10005c:	34c0006f          	j	1003a8 <default_exc_handler>
  100060:	3480006f          	j	1003a8 <default_exc_handler>
  100064:	3440006f          	j	1003a8 <default_exc_handler>
  100068:	3400006f          	j	1003a8 <default_exc_handler>
  10006c:	33c0006f          	j	1003a8 <default_exc_handler>
  100070:	3380006f          	j	1003a8 <default_exc_handler>
  100074:	3340006f          	j	1003a8 <default_exc_handler>
  100078:	3300006f          	j	1003a8 <default_exc_handler>
  10007c:	0000                	.insn	2, 0x0000
  10007e:	0000                	.insn	2, 0x0000
  100080:	3300006f          	j	1003b0 <reset_handler>

Disassembly of section .text:

00100084 <putchar>:
  100084:	0ff57793          	zext.b	a5,a0
  100088:	00020737          	lui	a4,0x20
  10008c:	c31c                	sw	a5,0(a4)
  10008e:	8082                	ret

00100090 <puts>:
  100090:	00054783          	lbu	a5,0(a0)
  100094:	cb81                	beqz	a5,1000a4 <puts+0x14>
  100096:	00020737          	lui	a4,0x20
  10009a:	0505                	addi	a0,a0,1
  10009c:	c31c                	sw	a5,0(a4)
  10009e:	00054783          	lbu	a5,0(a0)
  1000a2:	ffe5                	bnez	a5,10009a <puts+0xa>
  1000a4:	4501                	li	a0,0
  1000a6:	8082                	ret

001000a8 <puthex>:
  1000a8:	4721                	li	a4,8
  1000aa:	4825                	li	a6,9
  1000ac:	000205b7          	lui	a1,0x20
  1000b0:	a029                	j	1000ba <puthex+0x12>
  1000b2:	c190                	sw	a2,0(a1)
  1000b4:	177d                	addi	a4,a4,-1 # 1ffff <_stack_len+0x17fff>
  1000b6:	0512                	slli	a0,a0,0x4
  1000b8:	cf09                	beqz	a4,1000d2 <puthex+0x2a>
  1000ba:	01c55793          	srli	a5,a0,0x1c
  1000be:	03078613          	addi	a2,a5,48
  1000c2:	03778693          	addi	a3,a5,55
  1000c6:	fef876e3          	bgeu	a6,a5,1000b2 <puthex+0xa>
  1000ca:	c194                	sw	a3,0(a1)
  1000cc:	177d                	addi	a4,a4,-1
  1000ce:	0512                	slli	a0,a0,0x4
  1000d0:	f76d                	bnez	a4,1000ba <puthex+0x12>
  1000d2:	8082                	ret

001000d4 <sim_halt>:
  1000d4:	000207b7          	lui	a5,0x20
  1000d8:	4705                	li	a4,1
  1000da:	c798                	sw	a4,8(a5)
  1000dc:	8082                	ret

001000de <pcount_reset>:
  1000de:	b0201073          	csrw	minstret,zero
  1000e2:	b0001073          	csrw	mcycle,zero
  1000e6:	b0301073          	csrw	mhpmcounter3,zero
  1000ea:	b0401073          	csrw	mhpmcounter4,zero
  1000ee:	b0501073          	csrw	mhpmcounter5,zero
  1000f2:	b0601073          	csrw	mhpmcounter6,zero
  1000f6:	b0701073          	csrw	mhpmcounter7,zero
  1000fa:	b0801073          	csrw	mhpmcounter8,zero
  1000fe:	b0901073          	csrw	mhpmcounter9,zero
  100102:	b0a01073          	csrw	mhpmcounter10,zero
  100106:	b0b01073          	csrw	mhpmcounter11,zero
  10010a:	b0c01073          	csrw	mhpmcounter12,zero
  10010e:	b0d01073          	csrw	mhpmcounter13,zero
  100112:	b0e01073          	csrw	mhpmcounter14,zero
  100116:	b0f01073          	csrw	mhpmcounter15,zero
  10011a:	b1001073          	csrw	mhpmcounter16,zero
  10011e:	b1101073          	csrw	mhpmcounter17,zero
  100122:	b1201073          	csrw	mhpmcounter18,zero
  100126:	b1301073          	csrw	mhpmcounter19,zero
  10012a:	b1401073          	csrw	mhpmcounter20,zero
  10012e:	b1501073          	csrw	mhpmcounter21,zero
  100132:	b1601073          	csrw	mhpmcounter22,zero
  100136:	b1701073          	csrw	mhpmcounter23,zero
  10013a:	b1801073          	csrw	mhpmcounter24,zero
  10013e:	b1901073          	csrw	mhpmcounter25,zero
  100142:	b1a01073          	csrw	mhpmcounter26,zero
  100146:	b1b01073          	csrw	mhpmcounter27,zero
  10014a:	b1c01073          	csrw	mhpmcounter28,zero
  10014e:	b1d01073          	csrw	mhpmcounter29,zero
  100152:	b1e01073          	csrw	mhpmcounter30,zero
  100156:	b1f01073          	csrw	mhpmcounter31,zero
  10015a:	b8201073          	csrw	minstreth,zero
  10015e:	b8001073          	csrw	mcycleh,zero
  100162:	b8301073          	csrw	mhpmcounter3h,zero
  100166:	b8401073          	csrw	mhpmcounter4h,zero
  10016a:	b8501073          	csrw	mhpmcounter5h,zero
  10016e:	b8601073          	csrw	mhpmcounter6h,zero
  100172:	b8701073          	csrw	mhpmcounter7h,zero
  100176:	b8801073          	csrw	mhpmcounter8h,zero
  10017a:	b8901073          	csrw	mhpmcounter9h,zero
  10017e:	b8a01073          	csrw	mhpmcounter10h,zero
  100182:	b8b01073          	csrw	mhpmcounter11h,zero
  100186:	b8c01073          	csrw	mhpmcounter12h,zero
  10018a:	b8d01073          	csrw	mhpmcounter13h,zero
  10018e:	b8e01073          	csrw	mhpmcounter14h,zero
  100192:	b8f01073          	csrw	mhpmcounter15h,zero
  100196:	b9001073          	csrw	mhpmcounter16h,zero
  10019a:	b9101073          	csrw	mhpmcounter17h,zero
  10019e:	b9201073          	csrw	mhpmcounter18h,zero
  1001a2:	b9301073          	csrw	mhpmcounter19h,zero
  1001a6:	b9401073          	csrw	mhpmcounter20h,zero
  1001aa:	b9501073          	csrw	mhpmcounter21h,zero
  1001ae:	b9601073          	csrw	mhpmcounter22h,zero
  1001b2:	b9701073          	csrw	mhpmcounter23h,zero
  1001b6:	b9801073          	csrw	mhpmcounter24h,zero
  1001ba:	b9901073          	csrw	mhpmcounter25h,zero
  1001be:	b9a01073          	csrw	mhpmcounter26h,zero
  1001c2:	b9b01073          	csrw	mhpmcounter27h,zero
  1001c6:	b9c01073          	csrw	mhpmcounter28h,zero
  1001ca:	b9d01073          	csrw	mhpmcounter29h,zero
  1001ce:	b9e01073          	csrw	mhpmcounter30h,zero
  1001d2:	b9f01073          	csrw	mhpmcounter31h,zero
  1001d6:	8082                	ret

001001d8 <get_mepc>:
  1001d8:	34102573          	csrr	a0,mepc
  1001dc:	8082                	ret

001001de <get_mcause>:
  1001de:	34202573          	csrr	a0,mcause
  1001e2:	8082                	ret

001001e4 <get_mtval>:
  1001e4:	34302573          	csrr	a0,mtval
  1001e8:	8082                	ret

001001ea <simple_exc_handler>:
  1001ea:	1141                	addi	sp,sp,-16
  1001ec:	c606                	sw	ra,12(sp)
  1001ee:	c422                	sw	s0,8(sp)
  1001f0:	04500713          	li	a4,69
  1001f4:	00000797          	auipc	a5,0x0
  1001f8:	24878793          	addi	a5,a5,584 # 10043c <main+0xc>
  1001fc:	000206b7          	lui	a3,0x20
  100200:	0785                	addi	a5,a5,1
  100202:	c298                	sw	a4,0(a3)
  100204:	0007c703          	lbu	a4,0(a5)
  100208:	ff65                	bnez	a4,100200 <simple_exc_handler+0x16>
  10020a:	03d00713          	li	a4,61
  10020e:	00000797          	auipc	a5,0x0
  100212:	23e78793          	addi	a5,a5,574 # 10044c <main+0x1c>
  100216:	000206b7          	lui	a3,0x20
  10021a:	0785                	addi	a5,a5,1
  10021c:	c298                	sw	a4,0(a3)
  10021e:	0007c703          	lbu	a4,0(a5)
  100222:	ff65                	bnez	a4,10021a <simple_exc_handler+0x30>
  100224:	04d00713          	li	a4,77
  100228:	00000797          	auipc	a5,0x0
  10022c:	23478793          	addi	a5,a5,564 # 10045c <main+0x2c>
  100230:	000206b7          	lui	a3,0x20
  100234:	0785                	addi	a5,a5,1
  100236:	c298                	sw	a4,0(a3)
  100238:	0007c703          	lbu	a4,0(a5)
  10023c:	ff65                	bnez	a4,100234 <simple_exc_handler+0x4a>
  10023e:	34102573          	csrr	a0,mepc
  100242:	359d                	jal	1000a8 <puthex>
  100244:	4729                	li	a4,10
  100246:	00000797          	auipc	a5,0x0
  10024a:	22278793          	addi	a5,a5,546 # 100468 <main+0x38>
  10024e:	000206b7          	lui	a3,0x20
  100252:	0785                	addi	a5,a5,1
  100254:	c298                	sw	a4,0(a3)
  100256:	0007c703          	lbu	a4,0(a5)
  10025a:	ff65                	bnez	a4,100252 <simple_exc_handler+0x68>
  10025c:	34202573          	csrr	a0,mcause
  100260:	35a1                	jal	1000a8 <puthex>
  100262:	4729                	li	a4,10
  100264:	00000797          	auipc	a5,0x0
  100268:	21078793          	addi	a5,a5,528 # 100474 <main+0x44>
  10026c:	00020437          	lui	s0,0x20
  100270:	0785                	addi	a5,a5,1
  100272:	c018                	sw	a4,0(s0)
  100274:	0007c703          	lbu	a4,0(a5)
  100278:	ff65                	bnez	a4,100270 <simple_exc_handler+0x86>
  10027a:	34302573          	csrr	a0,mtval
  10027e:	352d                	jal	1000a8 <puthex>
  100280:	4729                	li	a4,10
  100282:	c018                	sw	a4,0(s0)
  100284:	000207b7          	lui	a5,0x20
  100288:	4705                	li	a4,1
  10028a:	c798                	sw	a4,8(a5)
  10028c:	a001                	j	10028c <simple_exc_handler+0xa2>

0010028e <timer_enable>:
  10028e:	00000797          	auipc	a5,0x0
  100292:	1f278793          	addi	a5,a5,498 # 100480 <time_increment>
  100296:	00000697          	auipc	a3,0x0
  10029a:	1f268693          	addi	a3,a3,498 # 100488 <time_elapsed>
  10029e:	c388                	sw	a0,0(a5)
  1002a0:	c3cc                	sw	a1,4(a5)
  1002a2:	4781                	li	a5,0
  1002a4:	4801                	li	a6,0
  1002a6:	00030737          	lui	a4,0x30
  1002aa:	c29c                	sw	a5,0(a3)
  1002ac:	0106a223          	sw	a6,4(a3)
  1002b0:	0711                	addi	a4,a4,4 # 30004 <tohost+0xfffc>
  1002b2:	00030837          	lui	a6,0x30
  1002b6:	431c                	lw	a5,0(a4)
  1002b8:	00082603          	lw	a2,0(a6) # 30000 <tohost+0xfff8>
  1002bc:	4314                	lw	a3,0(a4)
  1002be:	fed79ce3          	bne	a5,a3,1002b6 <timer_enable+0x28>
  1002c2:	9532                	add	a0,a0,a2
  1002c4:	00030737          	lui	a4,0x30
  1002c8:	97ae                	add	a5,a5,a1
  1002ca:	00c53633          	sltu	a2,a0,a2
  1002ce:	55fd                	li	a1,-1
  1002d0:	963e                	add	a2,a2,a5
  1002d2:	c70c                	sw	a1,8(a4)
  1002d4:	c750                	sw	a2,12(a4)
  1002d6:	c708                	sw	a0,8(a4)
  1002d8:	08000793          	li	a5,128
  1002dc:	3047a073          	csrs	mie,a5
  1002e0:	47a1                	li	a5,8
  1002e2:	3007a073          	csrs	mstatus,a5
  1002e6:	8082                	ret

001002e8 <timer_disable>:
  1002e8:	08000793          	li	a5,128
  1002ec:	3047b073          	csrc	mie,a5
  1002f0:	8082                	ret

001002f2 <timer_read>:
  1002f2:	000307b7          	lui	a5,0x30
  1002f6:	0791                	addi	a5,a5,4 # 30004 <tohost+0xfffc>
  1002f8:	000306b7          	lui	a3,0x30
  1002fc:	4398                	lw	a4,0(a5)
  1002fe:	4288                	lw	a0,0(a3)
  100300:	438c                	lw	a1,0(a5)
  100302:	fee59de3          	bne	a1,a4,1002fc <timer_read+0xa>
  100306:	8082                	ret

00100308 <timecmp_update>:
  100308:	000307b7          	lui	a5,0x30
  10030c:	56fd                	li	a3,-1
  10030e:	c794                	sw	a3,8(a5)
  100310:	c7cc                	sw	a1,12(a5)
  100312:	c788                	sw	a0,8(a5)
  100314:	8082                	ret

00100316 <get_elapsed_time>:
  100316:	00000797          	auipc	a5,0x0
  10031a:	17278793          	addi	a5,a5,370 # 100488 <time_elapsed>
  10031e:	4388                	lw	a0,0(a5)
  100320:	43cc                	lw	a1,4(a5)
  100322:	8082                	ret

00100324 <simple_timer_handler>:
  100324:	1101                	addi	sp,sp,-32
  100326:	c43e                	sw	a5,8(sp)
  100328:	00000797          	auipc	a5,0x0
  10032c:	15878793          	addi	a5,a5,344 # 100480 <time_increment>
  100330:	ce2a                	sw	a0,28(sp)
  100332:	c242                	sw	a6,4(sp)
  100334:	4388                	lw	a0,0(a5)
  100336:	0047a803          	lw	a6,4(a5)
  10033a:	c63a                	sw	a4,12(sp)
  10033c:	00030737          	lui	a4,0x30
  100340:	cc2e                	sw	a1,24(sp)
  100342:	ca32                	sw	a2,20(sp)
  100344:	c836                	sw	a3,16(sp)
  100346:	c046                	sw	a7,0(sp)
  100348:	0711                	addi	a4,a4,4 # 30004 <tohost+0xfffc>
  10034a:	000305b7          	lui	a1,0x30
  10034e:	431c                	lw	a5,0(a4)
  100350:	4190                	lw	a2,0(a1)
  100352:	4314                	lw	a3,0(a4)
  100354:	fed79de3          	bne	a5,a3,10034e <simple_timer_handler+0x2a>
  100358:	00a606b3          	add	a3,a2,a0
  10035c:	00030737          	lui	a4,0x30
  100360:	97c2                	add	a5,a5,a6
  100362:	00c6b633          	sltu	a2,a3,a2
  100366:	557d                	li	a0,-1
  100368:	c708                	sw	a0,8(a4)
  10036a:	963e                	add	a2,a2,a5
  10036c:	c750                	sw	a2,12(a4)
  10036e:	c714                	sw	a3,8(a4)
  100370:	00000597          	auipc	a1,0x0
  100374:	11858593          	addi	a1,a1,280 # 100488 <time_elapsed>
  100378:	0005a803          	lw	a6,0(a1)
  10037c:	0045a883          	lw	a7,4(a1)
  100380:	46c2                	lw	a3,16(sp)
  100382:	00180513          	addi	a0,a6,1
  100386:	01053633          	sltu	a2,a0,a6
  10038a:	011607b3          	add	a5,a2,a7
  10038e:	c188                	sw	a0,0(a1)
  100390:	c1dc                	sw	a5,4(a1)
  100392:	4572                	lw	a0,28(sp)
  100394:	45e2                	lw	a1,24(sp)
  100396:	4652                	lw	a2,20(sp)
  100398:	4732                	lw	a4,12(sp)
  10039a:	47a2                	lw	a5,8(sp)
  10039c:	4812                	lw	a6,4(sp)
  10039e:	4882                	lw	a7,0(sp)
  1003a0:	6105                	addi	sp,sp,32
  1003a2:	30200073          	mret

001003a6 <popcount>:
  1003a6:	8082                	ret

001003a8 <default_exc_handler>:
  1003a8:	e43ff06f          	j	1001ea <simple_exc_handler>

001003ac <timer_handler>:
  1003ac:	f79ff06f          	j	100324 <simple_timer_handler>

001003b0 <reset_handler>:
  1003b0:	00000093          	li	ra,0
  1003b4:	8106                	mv	sp,ra
  1003b6:	8186                	mv	gp,ra
  1003b8:	8206                	mv	tp,ra
  1003ba:	8286                	mv	t0,ra
  1003bc:	8306                	mv	t1,ra
  1003be:	8386                	mv	t2,ra
  1003c0:	8406                	mv	s0,ra
  1003c2:	8486                	mv	s1,ra
  1003c4:	8506                	mv	a0,ra
  1003c6:	8586                	mv	a1,ra
  1003c8:	8606                	mv	a2,ra
  1003ca:	8686                	mv	a3,ra
  1003cc:	8706                	mv	a4,ra
  1003ce:	8786                	mv	a5,ra
  1003d0:	8806                	mv	a6,ra
  1003d2:	8886                	mv	a7,ra
  1003d4:	8906                	mv	s2,ra
  1003d6:	8986                	mv	s3,ra
  1003d8:	8a06                	mv	s4,ra
  1003da:	8a86                	mv	s5,ra
  1003dc:	8b06                	mv	s6,ra
  1003de:	8b86                	mv	s7,ra
  1003e0:	8c06                	mv	s8,ra
  1003e2:	8c86                	mv	s9,ra
  1003e4:	8d06                	mv	s10,ra
  1003e6:	8d86                	mv	s11,ra
  1003e8:	8e06                	mv	t3,ra
  1003ea:	8e86                	mv	t4,ra
  1003ec:	8f06                	mv	t5,ra
  1003ee:	8f86                	mv	t6,ra
  1003f0:	00038117          	auipc	sp,0x38
  1003f4:	c1010113          	addi	sp,sp,-1008 # 138000 <_stack_start>

001003f8 <_start>:
  1003f8:	00000d17          	auipc	s10,0x0
  1003fc:	088d0d13          	addi	s10,s10,136 # 100480 <time_increment>
  100400:	00000d97          	auipc	s11,0x0
  100404:	090d8d93          	addi	s11,s11,144 # 100490 <_bss_end>
  100408:	01bd5763          	bge	s10,s11,100416 <main_entry>

0010040c <zero_loop>:
  10040c:	000d2023          	sw	zero,0(s10)
  100410:	0d11                	addi	s10,s10,4
  100412:	ffaddde3          	bge	s11,s10,10040c <zero_loop>

00100416 <main_entry>:
  100416:	4501                	li	a0,0
  100418:	4581                	li	a1,0
  10041a:	016000ef          	jal	100430 <main>
  10041e:	000202b7          	lui	t0,0x20
  100422:	02a1                	addi	t0,t0,8 # 20008 <tohost>
  100424:	4305                	li	t1,1
  100426:	0062a023          	sw	t1,0(t0)

0010042a <sleep_loop>:
  10042a:	10500073          	wfi
  10042e:	bff5                	j	10042a <sleep_loop>

00100430 <main>:
  100430:	000207b7          	lui	a5,0x20
  100434:	4705                	li	a4,1
  100436:	c798                	sw	a4,8(a5)
  100438:	a001                	j	100438 <main+0x8>
